; Function Attrs: nounwind uwtable
define internal noalias noundef ptr @_agent_nodes_update(ptr readnone captures(none) %0) #0 {
  %2 = alloca %struct.timespec, align 8
  call void @llvm.lifetime.start.p0(i64 16, ptr nonnull %2) #14
  call void @llvm.memset.p0.i64(ptr noundef nonnull align 8 dereferenceable(16) %2, i8 0, i64 16, i1 false)
  %3 = tail call i32 @pthread_mutex_lock(ptr noundef nonnull @update_nodes_mutex) #14
  %.not = icmp eq i32 %3, 0
  br i1 %.not, label %.preheader, label %4

4:                                                ; preds = %1
  %5 = tail call ptr @__errno_location() #15
  store i32 %3, ptr %5, align 4
  tail call void (ptr, ...) @fatal_abort(ptr noundef nonnull @.str.3, ptr noundef nonnull @__func__._agent_nodes_update) #16
  unreachable

.preheader:                                       ; preds = %1, %.preheader.backedge
  %6 = call i64 @time(ptr noundef null) #14
  %7 = add nsw i64 %6, 2
  store i64 %7, ptr %2, align 8
  %8 = call i32 @pthread_cond_timedwait(ptr noundef nonnull @update_nodes_cond, ptr noundef nonnull @update_nodes_mutex, ptr noundef nonnull %2) #14
  switch i32 %8, label %9 [
    i32 110, label %12
    i32 0, label %12
  ]

9:                                                ; preds = %.preheader
  %10 = tail call ptr @__errno_location() #15
  store i32 %8, ptr %10, align 4
  %11 = call i32 (ptr, ...) @error(ptr noundef nonnull @.str.63, ptr noundef nonnull @.str.6, i32 noundef 1530, ptr noundef nonnull @__func__._agent_nodes_update) #14
  br label %12

12:                                               ; preds = %.preheader, %.preheader, %9
  %13 = load i64, ptr getelementptr inbounds nuw (i8, ptr @slurmctld_config, i64 328), align 8
  %.not10 = icmp eq i64 %13, 0
  br i1 %.not10, label %19, label %14

14:                                               ; preds = %12
  %15 = call i32 @pthread_mutex_unlock(ptr noundef nonnull @update_nodes_mutex) #14
  %.not12 = icmp eq i32 %15, 0
  br i1 %.not12, label %18, label %16

16:                                               ; preds = %14
  %17 = tail call ptr @__errno_location() #15
  store i32 %15, ptr %17, align 4
  call void (ptr, ...) @fatal_abort(ptr noundef nonnull @.str.7, ptr noundef nonnull @__func__._agent_nodes_update) #16
  unreachable

18:                                               ; preds = %14
  call void @llvm.lifetime.end.p0(i64 16, ptr nonnull %2) #14
  ret ptr null

19:                                               ; preds = %12
  %20 = load ptr, ptr @update_node_list, align 8
  %21 = call i32 @list_count(ptr noundef %20) #14
  %.not11 = icmp eq i32 %21, 0
  br i1 %.not11, label %.preheader.backedge, label %22

22:                                               ; preds = %19
  call void @lock_slurmctld(ptr noundef nonnull byval(%struct.slurmctld_lock_t) align 8 @__const._agent_nodes_update.node_write_lock) #14
  %23 = load ptr, ptr @update_node_list, align 8
  %24 = call i32 @list_delete_all(ptr noundef %23, ptr noundef nonnull @_foreach_node_did_resp, ptr noundef null) #14
  call void @unlock_slurmctld(ptr noundef nonnull byval(%struct.slurmctld_lock_t) align 8 @__const._agent_nodes_update.node_write_lock) #14
  br label %.preheader.backedge

.preheader.backedge:                              ; preds = %22, %19
  br label %.preheader, !llvm.loop !32
}